; Function Attrs: nounwind uwtable
define ptr @l___private_Lean_ToExpr_0__Lean_List_toExprAux___at___private_Lean_Server_CodeActions_Attr_0__Lean_CodeAction_addBuiltin___spec__1(ptr noundef %0, ptr noundef %1, ptr noundef %2) local_unnamed_addr #0 {
  %4 = ptrtoint ptr %2 to i64
  %5 = and i64 %4, 1
  %.not.i25 = icmp eq i64 %5, 0
  br i1 %.not.i25, label %9, label %6

6:                                                ; preds = %3
  %7 = lshr i64 %4, 1
  %8 = trunc i64 %7 to i32
  br label %lean_obj_tag.exit

9:                                                ; preds = %3
  %10 = getelementptr i8, ptr %2, i64 4
  %.val.i = load i32, ptr %10, align 4
  %11 = lshr i32 %.val.i, 24
  br label %lean_obj_tag.exit

lean_obj_tag.exit:                                ; preds = %6, %9
  %.0.i = phi i32 [ %8, %6 ], [ %11, %9 ]
  %12 = icmp eq i32 %.0.i, 0
  br i1 %12, label %13, label %31

13:                                               ; preds = %lean_obj_tag.exit
  %14 = ptrtoint ptr %1 to i64
  %15 = and i64 %14, 1
  %.not40 = icmp eq i64 %15, 0
  br i1 %.not40, label %16, label %lean_dec.exit19

16:                                               ; preds = %13
  %17 = load i32, ptr %1, align 4, !tbaa !8
  %18 = icmp sgt i32 %17, 1
  br i1 %18, label %19, label %21, !prof !11

19:                                               ; preds = %16
  %20 = add nsw i32 %17, -1
  store i32 %20, ptr %1, align 4, !tbaa !8
  br label %lean_dec.exit19

21:                                               ; preds = %16
  %.not.i = icmp eq i32 %17, 0
  br i1 %.not.i, label %lean_dec.exit19, label %22

22:                                               ; preds = %21
  tail call void @lean_dec_ref_cold(ptr noundef nonnull %1) #5
  br label %lean_dec.exit19

lean_dec.exit19:                                  ; preds = %22, %21, %19, %13
  %23 = ptrtoint ptr %0 to i64
  %24 = and i64 %23, 1
  %.not41 = icmp eq i64 %24, 0
  br i1 %.not41, label %25, label %common.ret42

25:                                               ; preds = %lean_dec.exit19
  %.val.i26 = load i32, ptr %0, align 4, !tbaa !8
  %26 = icmp sgt i32 %.val.i26, 0
  br i1 %26, label %27, label %29, !prof !11

27:                                               ; preds = %25
  %28 = add nuw i32 %.val.i26, 1
  store i32 %28, ptr %0, align 4, !tbaa !8
  br label %common.ret42

29:                                               ; preds = %25
  %.not.i27 = icmp eq i32 %.val.i26, 0
  br i1 %.not.i27, label %common.ret42, label %30

30:                                               ; preds = %29
  tail call void @lean_inc_ref_cold(ptr noundef nonnull %0) #5
  br label %common.ret42

31:                                               ; preds = %lean_obj_tag.exit
  %32 = getelementptr inbounds nuw i8, ptr %2, i64 8
  %33 = load ptr, ptr %32, align 8, !tbaa !4
  %34 = ptrtoint ptr %33 to i64
  %35 = and i64 %34, 1
  %.not = icmp eq i64 %35, 0
  br i1 %.not, label %36, label %lean_inc.exit21

36:                                               ; preds = %31
  %.val.i28 = load i32, ptr %33, align 4, !tbaa !8
  %37 = icmp sgt i32 %.val.i28, 0
  br i1 %37, label %38, label %40, !prof !11

38:                                               ; preds = %36
  %39 = add nuw i32 %.val.i28, 1
  store i32 %39, ptr %33, align 4, !tbaa !8
  br label %lean_inc.exit21

40:                                               ; preds = %36
  %.not.i29 = icmp eq i32 %.val.i28, 0
  br i1 %.not.i29, label %lean_inc.exit21, label %41

41:                                               ; preds = %40
  tail call void @lean_inc_ref_cold(ptr noundef nonnull %33) #5
  br label %lean_inc.exit21

lean_inc.exit21:                                  ; preds = %41, %40, %38, %31
  %42 = getelementptr inbounds nuw i8, ptr %2, i64 16
  %43 = load ptr, ptr %42, align 8, !tbaa !4
  %44 = ptrtoint ptr %43 to i64
  %45 = and i64 %44, 1
  %.not37 = icmp eq i64 %45, 0
  br i1 %.not37, label %46, label %lean_inc.exit20

46:                                               ; preds = %lean_inc.exit21
  %.val.i31 = load i32, ptr %43, align 4, !tbaa !8
  %47 = icmp sgt i32 %.val.i31, 0
  br i1 %47, label %48, label %50, !prof !11

48:                                               ; preds = %46
  %49 = add nuw i32 %.val.i31, 1
  store i32 %49, ptr %43, align 4, !tbaa !8
  br label %lean_inc.exit20

50:                                               ; preds = %46
  %.not.i32 = icmp eq i32 %.val.i31, 0
  br i1 %.not.i32, label %lean_inc.exit20, label %51

51:                                               ; preds = %50
  tail call void @lean_inc_ref_cold(ptr noundef nonnull %43) #5
  br label %lean_inc.exit20

lean_inc.exit20:                                  ; preds = %51, %50, %48, %lean_inc.exit21
  br i1 %.not.i25, label %52, label %lean_dec.exit

52:                                               ; preds = %lean_inc.exit20
  %53 = load i32, ptr %2, align 4, !tbaa !8
  %54 = icmp sgt i32 %53, 1
  br i1 %54, label %55, label %57, !prof !11

55:                                               ; preds = %52
  %56 = add nsw i32 %53, -1
  store i32 %56, ptr %2, align 4, !tbaa !8
  br label %lean_dec.exit

57:                                               ; preds = %52
  %.not.i23 = icmp eq i32 %53, 0
  br i1 %.not.i23, label %lean_dec.exit, label %58

58:                                               ; preds = %57
  tail call void @lean_dec_ref_cold(ptr noundef nonnull %2) #5
  br label %lean_dec.exit

lean_dec.exit:                                    ; preds = %58, %57, %55, %lean_inc.exit20
  %59 = tail call ptr @l___private_Lean_ToExpr_0__Lean_Name_toExprAux(ptr noundef %33) #5
  %60 = ptrtoint ptr %1 to i64
  %61 = and i64 %60, 1
  %.not39 = icmp eq i64 %61, 0
  br i1 %.not39, label %62, label %lean_inc.exit

62:                                               ; preds = %lean_dec.exit
  %.val.i34 = load i32, ptr %1, align 4, !tbaa !8
  %63 = icmp sgt i32 %.val.i34, 0
  br i1 %63, label %64, label %66, !prof !11

64:                                               ; preds = %62
  %65 = add nuw i32 %.val.i34, 1
  store i32 %65, ptr %1, align 4, !tbaa !8
  br label %lean_inc.exit

66:                                               ; preds = %62
  %.not.i35 = icmp eq i32 %.val.i34, 0
  br i1 %.not.i35, label %lean_inc.exit, label %67

67:                                               ; preds = %66
  tail call void @lean_inc_ref_cold(ptr noundef nonnull %1) #5
  br label %lean_inc.exit

common.ret42:                                     ; preds = %lean_dec.exit19, %27, %29, %30, %lean_inc.exit
  %common.ret42.op = phi ptr [ %69, %lean_inc.exit ], [ %0, %30 ], [ %0, %29 ], [ %0, %27 ], [ %0, %lean_dec.exit19 ]
  ret ptr %common.ret42.op

lean_inc.exit:                                    ; preds = %67, %66, %64, %lean_dec.exit
  %68 = tail call ptr @l___private_Lean_ToExpr_0__Lean_List_toExprAux___at___private_Lean_Server_CodeActions_Attr_0__Lean_CodeAction_addBuiltin___spec__1(ptr noundef %0, ptr noundef %1, ptr noundef %43)
  %69 = tail call ptr @l_Lean_mkAppB(ptr noundef %1, ptr noundef %59, ptr noundef %68) #5
  br label %common.ret42
}